(dp0
S'A'
p1
(lp2
(lp3
F0.6679093035156917
aF0.10144724899961848
aF0.14003860242175017
aF0.09060484506293973
aa(lp4
F0.04482515656066385
aF0.8961347836339779
aF0.004617287382814087
aF0.05442277242254411
aa(lp5
F0.1736806259109352
aF0.012191401269132748
aF0.7736822425877441
aF0.040445730232187956
aa(lp6
F0.3494904969109704
aF0.04917091677891645
aF0.07998445175491425
aF0.521354134555199
aasS'pi'
p7
(lp8
F0.7682125028086869
aI0
aI0
aI0
asS'B'
p9
(lp10
(lp11
F0.06278555147792467
aF0.04559269526721462
aF0.054899928192102085
aF0.07953479252251135
aF0.011247370717012825
aF0.05198071023157233
aF0.03182976816276225
aF0.10203778524205472
aF0.026932195929814565
aF0.03959726778222599
aF0.06659547399618226
aF0.05658123618588235
aF0.019455662694396487
aF0.03401223318219729
aF0.08158567125184812
aF0.07703248161971867
aF0.06664129034471482
aF0.011234776649643686
aF0.028889921988438212
aF0.05153318656178269
aa(lp12
F0.11273171445659697
aF0.058677806909287374
aF0.03234495547511309
aF0.049991466426094894
aF0.009703305950882424
aF0.08989836751663471
aF0.046033497932476845
aF0.03727833035657526
aF0.021744926137359493
aF0.05994117008357317
aF0.11796405188872877
aF0.06715208109966968
aF0.027537079158877077
aF0.04113773976755498
aF0.025257407577452245
aF0.047397227105916026
aF0.04218542281600054
aF0.01533168663008263
aF0.03449469333259304
aF0.06319706937853077
aa(lp13
F0.062472603737856916
aF0.04420688382420385
aF0.02663735127795143
aF0.032297241585707966
aF0.013863486435645257
aF0.04582813413963207
aF0.027898484698798288
aF0.05036653410231665
aF0.0234701767875545
aF0.09911152817328026
aF0.10377885172252052
aF0.04929458518039307
aF0.022335069794014874
aF0.057786738369426625
aF0.02095805000323033
aF0.049611244686247793
aF0.06729115899986586
aF0.01786301477811961
aF0.05013360249874191
aF0.13479525920449223
aa(lp14
F0.06561417156179945
aF0.044689487349115216
aF0.07123346265127263
aF0.08023640693374644
aF0.007730265162722304
aF0.06756834624850543
aF0.035078183609311336
aF0.17955635192652702
aF0.025860817550893315
aF0.01962596420541495
aF0.05245188807515733
aF0.06714670549529214
aF0.013042606216347693
aF0.026833749433472182
aF0.07468471133953217
aF0.0626327669717329
aF0.04465568960148577
aF0.009767549064910513
aF0.025192619458416027
aF0.026398257144345193
aas.