(dp0
S'A'
p1
(lp2
(lp3
F0.6679095251946202
aF0.10144632662790892
aF0.14003912668611554
aF0.09060502149135535
aa(lp4
F0.04482496416449065
aF0.896134553843864
aF0.004617360888655918
aF0.054423121102989476
aa(lp5
F0.1736806259109352
aF0.012191401269132748
aF0.7736822425877441
aF0.040445730232187956
aa(lp6
F0.34949124998979236
aF0.049169912704051216
aF0.07998481099487983
aF0.5213540263112766
aasS'pi'
p7
(lp8
F0.7681943860951804
aI0
aI0
aI0
asS'B'
p9
(lp10
(lp11
F0.06278553982878901
aF0.045592567886822866
aF0.0548996463214653
aF0.0795351107590539
aF0.011247446427082464
aF0.051981060132299396
aF0.03182998242030073
aF0.10203760353261625
aF0.026932160079490813
aF0.03959710004447039
aF0.06659461943077906
aF0.056580965632730205
aF0.019455793657411267
aF0.03401246213068734
aF0.08158600329358792
aF0.0770321315906501
aF0.06664173893104311
aF0.011234852274938159
aF0.028889899316267825
aF0.05153331630951388
aa(lp12
F0.11273152817631131
aF0.05867767834790614
aF0.03234560900559104
aF0.049992312236225925
aF0.009703502006374931
aF0.08990018391496413
aF0.04603426377177461
aF0.037278755029078806
aF0.02174470842020397
aF0.05993728887396601
aF0.11796314998564293
aF0.06715195949271273
aF0.027537471277660343
aF0.04113824241950353
aF0.025257589366968505
aF0.047397527694019115
aF0.042185618099492804
aF0.015331667870206893
aF0.03449506176165435
aF0.06319588224974193
aa(lp13
F0.062472603737856916
aF0.04420688382420385
aF0.02663735127795143
aF0.032297241585707966
aF0.013863486435645257
aF0.04582813413963207
aF0.027898484698798288
aF0.05036653410231665
aF0.0234701767875545
aF0.09911152817328026
aF0.10377885172252052
aF0.04929458518039307
aF0.022335069794014874
aF0.057786738369426625
aF0.02095805000323033
aF0.049611244686247793
aF0.06729115899986586
aF0.01786301477811961
aF0.05013360249874191
aF0.13479525920449223
aa(lp14
F0.0656145714613404
aF0.04468920565389898
aF0.07123334273396634
aF0.08023634188680123
aF0.007730312276469477
aF0.06756875805818013
aF0.03507839740077115
aF0.1795568922061365
aF0.02586097516515287
aF0.01962497569040631
aF0.0524510996247319
aF0.06714711473518749
aF0.013042131642475273
aF0.026833912977472278
aF0.07468516652140934
aF0.06263314870046868
aF0.044655961765095356
aF0.00976705453050487
aF0.025192218935386625
aF0.026398418034144798
aas.