(dp0
S'A'
p1
(lp2
(lp3
F0.6676420590756534
aF0.0991616662065759
aF0.139070422944484
aF0.09412585177328664
aa(lp4
F0.048170454904074206
aF0.8930772722748602
aF0.004202139668344124
aF0.05455013315272144
aa(lp5
F0.18062582628687518
aF0.011910162020075136
aF0.7656001023529548
aF0.04186390934009483
aa(lp6
F0.3473573627965948
aF0.049614200326027896
aF0.0787466038761094
aF0.5242818330012678
aasS'pi'
p7
(lp8
F0.7468286582097552
aI0
aI0
aI0
asS'B'
p9
(lp10
(lp11
F0.06419082291793624
aF0.04362475476801742
aF0.05642596254781778
aF0.07979524358072113
aF0.01116174105861585
aF0.049754079991822325
aF0.03206985622230697
aF0.10391938698884612
aF0.024816100585411498
aF0.039638137848878124
aF0.06546465317612275
aF0.058961828339577985
aF0.01932369049069986
aF0.034444527444358386
aF0.07980703830533396
aF0.07444437018136355
aF0.06930187025016611
aF0.011881219259998977
aF0.03036355272831638
aF0.05061116331368856
aa(lp12
F0.11750213794615154
aF0.05673815793942126
aF0.034636271298420236
aF0.05340697541593472
aF0.009088972520059647
aF0.08844150671947985
aF0.04545412446088253
aF0.037862486068618036
aF0.0209318049205178
aF0.0555742507926609
aF0.11316449990583775
aF0.07082544788814142
aF0.02672664235942811
aF0.04121527960013461
aF0.02485574652139953
aF0.04673226122151592
aF0.043728331105341314
aF0.01593348749185728
aF0.03354028446261141
aF0.06364133136158612
aa(lp13
F0.062475146668700327
aF0.041911568442669835
aF0.028086307108188935
aF0.03224260119731775
aF0.012637748737586952
aF0.04509279484902793
aF0.02926837239959254
aF0.05105214705545902
aF0.02393546032455046
aF0.09874330662337874
aF0.1024747108842611
aF0.05009342128915932
aF0.021663933935079014
aF0.05841690407839762
aF0.020825048889566777
aF0.049483323074241324
aF0.06928972583711467
aF0.019392407545607566
aF0.051885584795480916
aF0.13102948626461922
aa(lp14
F0.06807544744189784
aF0.0400638772271659
aF0.07238414719884298
aF0.08234738766245506
aF0.007562822650302312
aF0.06585581423377458
aF0.035423739027378824
aF0.18482212803567483
aF0.025581021633891088
aF0.02058935781290802
aF0.0491834561999076
aF0.06881867304099792
aF0.012654922363055661
aF0.0240945704356909
aF0.074874957314746
aF0.06226020930839845
aF0.04497519233473274
aF0.009360625112990378
aF0.025581021633891088
aF0.025490629331297834
aas.